Archive member included because of file (symbol)

C:\Documents and Settings\nxp21346\Desktop\LPCXpresso_Fix_Examples\LPCE\CMSISv1p30_LPC11xx\Debug\libCMSISv1p30_LPC11xx.a(core_cm0.o)
                              ./freertos/src/croutine.o (__set_PRIMASK)
C:\Documents and Settings\nxp21346\Desktop\LPCXpresso_Fix_Examples\LPCE\CMSISv1p30_LPC11xx\Debug\libCMSISv1p30_LPC11xx.a(system_LPC11xx.o)
                              ./freertos/port/lpcxpresso/m0/port.o (SystemCoreClock)
C:\Documents and Settings\nxp21346\Desktop\LPCXpresso_Fix_Examples\LPCE\lib_small_printf_m0\Lib\liblib_small_printf_m0.a(small_printf_nofloat.o)
                              ./src/debug.o (printf_format_nofloat)
C:\Documents and Settings\nxp21346\Desktop\LPCXpresso_Fix_Examples\LPCE\lib_small_printf_m0\Lib\liblib_small_printf_m0.a(small_printf_support.o)
                              C:\Documents and Settings\nxp21346\Desktop\LPCXpresso_Fix_Examples\LPCE\lib_small_printf_m0\Lib\liblib_small_printf_m0.a(small_printf_nofloat.o) (prints)
C:\Documents and Settings\nxp21346\Desktop\LPCXpresso_Fix_Examples\LPCE\lib_small_printf_m0\Lib\liblib_small_printf_m0.a(small_utils.o)
                              ./src/debug.o (small_strlen)
c:/nxp/lpcxpresso_3.3_beta3/tools/bin/../lib/gcc/arm-none-eabi/4.3.3/../../../../arm-none-eabi/lib/armv6-m\libcr_c.a(__weak__main.o)
                              ./src/cr_startup_lpc11.o (__main)
c:/nxp/lpcxpresso_3.3_beta3/tools/bin/../lib/gcc/arm-none-eabi/4.3.3/../../../../arm-none-eabi/lib/armv6-m\libcr_c.a(ctype.o)
                              c:/nxp/lpcxpresso_3.3_beta3/tools/bin/../lib/gcc/arm-none-eabi/4.3.3/../../../../arm-none-eabi/lib/armv6-m\libcr_c.a(__weak__main.o) (_ctype_init)
c:/nxp/lpcxpresso_3.3_beta3/tools/bin/../lib/gcc/arm-none-eabi/4.3.3/../../../../arm-none-eabi/lib/armv6-m\libcr_c.a(memcmp.o)
                              ./freertos/src/tasks.o (memcmp)
c:/nxp/lpcxpresso_3.3_beta3/tools/bin/../lib/gcc/arm-none-eabi/4.3.3/../../../../arm-none-eabi/lib/armv6-m\libcr_c.a(memcpy.o)
                              ./freertos/src/queue.o (memcpy)
c:/nxp/lpcxpresso_3.3_beta3/tools/bin/../lib/gcc/arm-none-eabi/4.3.3/../../../../arm-none-eabi/lib/armv6-m\libcr_c.a(memset.o)
                              ./freertos/src/tasks.o (memset)
c:/nxp/lpcxpresso_3.3_beta3/tools/bin/../lib/gcc/arm-none-eabi/4.3.3/../../../../arm-none-eabi/lib/armv6-m\libcr_c.a(strncpy.o)
                              ./freertos/src/tasks.o (strncpy)
c:/nxp/lpcxpresso_3.3_beta3/tools/bin/../lib/gcc/arm-none-eabi/4.3.3/../../../../arm-none-eabi/lib/armv6-m\libcr_c.a(__init_alloc.o)
                              c:/nxp/lpcxpresso_3.3_beta3/tools/bin/../lib/gcc/arm-none-eabi/4.3.3/../../../../arm-none-eabi/lib/armv6-m\libcr_c.a(__weak__main.o) (_init_alloc)
c:/nxp/lpcxpresso_3.3_beta3/tools/bin/../lib/gcc/arm-none-eabi/4.3.3/../../../../arm-none-eabi/lib/armv6-m\libcr_semihost.a(cr__read.o)
                              ./src/debug.o (__read)
c:/nxp/lpcxpresso_3.3_beta3/tools/bin/../lib/gcc/arm-none-eabi/4.3.3/../../../../arm-none-eabi/lib/armv6-m\libcr_semihost.a(cr__write.o)
                              ./src/debug.o (__write)
c:/nxp/lpcxpresso_3.3_beta3/tools/bin/../lib/gcc/arm-none-eabi/4.3.3/armv6-m\libcr_eabihelpers.a(double.o)
                              C:\Documents and Settings\nxp21346\Desktop\LPCXpresso_Fix_Examples\LPCE\lib_small_printf_m0\Lib\liblib_small_printf_m0.a(small_utils.o) (__aeabi_dsub)
c:/nxp/lpcxpresso_3.3_beta3/tools/bin/../lib/gcc/arm-none-eabi/4.3.3/armv6-m\libcr_eabihelpers.a(helpers.o)
                              ./src/debug.o (__aeabi_idivmod)
c:/nxp/lpcxpresso_3.3_beta3/tools/bin/../lib/gcc/arm-none-eabi/4.3.3/armv6-m\libcr_eabihelpers.a(rtlib.o)
                              c:/nxp/lpcxpresso_3.3_beta3/tools/bin/../lib/gcc/arm-none-eabi/4.3.3/armv6-m\libcr_eabihelpers.a(double.o) (__aeabi_lmul)

Allocating common symbols
Common symbol       size              file

xQueueRegistry      0x50              ./freertos/src/queue.o
__heaps             0x4               c:/nxp/lpcxpresso_3.3_beta3/tools/bin/../lib/gcc/arm-none-eabi/4.3.3/../../../../arm-none-eabi/lib/armv6-m\libcr_c.a(__init_alloc.o)
__end_of_heap       0x4               c:/nxp/lpcxpresso_3.3_beta3/tools/bin/../lib/gcc/arm-none-eabi/4.3.3/../../../../arm-none-eabi/lib/armv6-m\libcr_c.a(__init_alloc.o)

Discarded input sections

 .text          0x00000000        0x0 ./src/cr_startup_lpc11.o
 .data          0x00000000        0x0 ./src/cr_startup_lpc11.o
 .bss           0x00000000        0x0 ./src/cr_startup_lpc11.o
 .text          0x00000000        0x0 ./src/debug.o
 .data          0x00000000        0x0 ./src/debug.o
 .bss           0x00000000        0x0 ./src/debug.o
 .text._debug_printf
                0x00000000        0x0 ./src/debug.o
 .text._debug_getstr
                0x00000000        0x0 ./src/debug.o
 .bss.debug_read_buf
                0x00000000        0x0 ./src/debug.o
 .text          0x00000000        0x0 ./src/main.o
 .data          0x00000000        0x0 ./src/main.o
 .bss           0x00000000        0x0 ./src/main.o
 .text          0x00000000        0x0 ./src/small_gpio.o
 .data          0x00000000        0x0 ./src/small_gpio.o
 .bss           0x00000000        0x0 ./src/small_gpio.o
 .rodata.IOCON_LUT
                0x00000000        0x0 ./src/small_gpio.o
 .text          0x00000000        0x0 ./freertos/src/croutine.o
 .data          0x00000000        0x0 ./freertos/src/croutine.o
 .bss           0x00000000        0x0 ./freertos/src/croutine.o
 .text.xCoRoutineRemoveFromEventList
                0x00000000        0x0 ./freertos/src/croutine.o
 .text.vCoRoutineSchedule
                0x00000000        0x0 ./freertos/src/croutine.o
 .text.vCoRoutineAddToDelayedList
                0x00000000        0x0 ./freertos/src/croutine.o
 .text.xCoRoutineCreate
                0x00000000        0x0 ./freertos/src/croutine.o
 .bss.xDelayedCoRoutineList1
                0x00000000        0x0 ./freertos/src/croutine.o
 .bss.xPassedTicks
                0x00000000        0x0 ./freertos/src/croutine.o
 .bss.xPendingReadyCoRoutineList
                0x00000000        0x0 ./freertos/src/croutine.o
 .bss.pxCurrentCoRoutine
                0x00000000        0x0 ./freertos/src/croutine.o
 .bss.xDelayedCoRoutineList2
                0x00000000        0x0 ./freertos/src/croutine.o
 .bss.xCoRoutineTickCount
                0x00000000        0x0 ./freertos/src/croutine.o
 .bss.xLastTickCount
                0x00000000        0x0 ./freertos/src/croutine.o
 .bss.pxDelayedCoRoutineList
                0x00000000        0x0 ./freertos/src/croutine.o
 .bss.pxReadyCoRoutineLists
                0x00000000        0x0 ./freertos/src/croutine.o
 .bss.uxTopCoRoutineReadyPriority
                0x00000000        0x0 ./freertos/src/croutine.o
 .bss.pxOverflowDelayedCoRoutineList
                0x00000000        0x0 ./freertos/src/croutine.o
 .text          0x00000000        0x0 ./freertos/src/list.o
 .data          0x00000000        0x0 ./freertos/src/list.o
 .bss           0x00000000        0x0 ./freertos/src/list.o
 .text          0x00000000        0x0 ./freertos/src/queue.o
 .data          0x00000000        0x0 ./freertos/src/queue.o
 .bss           0x00000000        0x0 ./freertos/src/queue.o
 .text.uxQueueMessagesWaitingFromISR
                0x00000000        0x0 ./freertos/src/queue.o
 .text.xQueueIsQueueEmptyFromISR
                0x00000000        0x0 ./freertos/src/queue.o
 .text.xQueueIsQueueFullFromISR
                0x00000000        0x0 ./freertos/src/queue.o
 .text.vQueueAddToRegistry
                0x00000000        0x0 ./freertos/src/queue.o
 .text.vQueueDelete
                0x00000000        0x0 ./freertos/src/queue.o
 .text.uxQueueMessagesWaiting
                0x00000000        0x0 ./freertos/src/queue.o
 .text.prvCopyDataFromQueue
                0x00000000        0x0 ./freertos/src/queue.o
 .text.xQueueReceiveFromISR
                0x00000000        0x0 ./freertos/src/queue.o
 .text.prvCopyDataToQueue
                0x00000000        0x0 ./freertos/src/queue.o
 .text.xQueueGenericSendFromISR
                0x00000000        0x0 ./freertos/src/queue.o
 .text.prvUnlockQueue
                0x00000000        0x0 ./freertos/src/queue.o
 .text.xQueueGenericReceive
                0x00000000        0x0 ./freertos/src/queue.o
 .text.xQueueGenericSend
                0x00000000        0x0 ./freertos/src/queue.o
 .text.xQueueCreate
                0x00000000        0x0 ./freertos/src/queue.o
 COMMON         0x00000000        0x0 ./freertos/src/queue.o
 .text          0x00000000        0x0 ./freertos/src/tasks.o
 .data          0x00000000        0x0 ./freertos/src/tasks.o
 .bss           0x00000000        0x0 ./freertos/src/tasks.o
 .text.xTaskIsTaskSuspended
                0x00000000        0x0 ./freertos/src/tasks.o
 .text.uxTaskGetNumberOfTasks
                0x00000000        0x0 ./freertos/src/tasks.o
 .text.vTaskSetTimeOutState
                0x00000000        0x0 ./freertos/src/tasks.o
 .text.vTaskMissedYield
                0x00000000        0x0 ./freertos/src/tasks.o
 .text.xTaskGetCurrentTaskHandle
                0x00000000        0x0 ./freertos/src/tasks.o
 .text.xTaskGetSchedulerState
                0x00000000        0x0 ./freertos/src/tasks.o
 .text.xTaskCheckForTimeOut
                0x00000000        0x0 ./freertos/src/tasks.o
 .text.xTaskGetTickCount
                0x00000000        0x0 ./freertos/src/tasks.o
 .text.uxTaskPriorityGet
                0x00000000        0x0 ./freertos/src/tasks.o
 .text.xTaskRemoveFromEventList
                0x00000000        0x0 ./freertos/src/tasks.o
 .text.xTaskResumeFromISR
                0x00000000        0x0 ./freertos/src/tasks.o
 .text.vTaskPlaceOnEventList
                0x00000000        0x0 ./freertos/src/tasks.o
 .text.vTaskResume
                0x00000000        0x0 ./freertos/src/tasks.o
 .text.vTaskSuspend
                0x00000000        0x0 ./freertos/src/tasks.o
 .text.vTaskPrioritySet
                0x00000000        0x0 ./freertos/src/tasks.o
 .text.vTaskDelayUntil
                0x00000000        0x0 ./freertos/src/tasks.o
 .text.vTaskDelete
                0x00000000        0x0 ./freertos/src/tasks.o
 .text.vTaskEndScheduler
                0x00000000        0x0 ./freertos/src/tasks.o
 .text          0x00000000        0x0 ./freertos/port/memmang/heap_2.o
 .data          0x00000000        0x0 ./freertos/port/memmang/heap_2.o
 .bss           0x00000000        0x0 ./freertos/port/memmang/heap_2.o
 .text.GetMemInUse
                0x00000000        0x0 ./freertos/port/memmang/heap_2.o
 .text          0x00000000        0x0 ./freertos/port/lpcxpresso/m0/port.o
 .data          0x00000000        0x0 ./freertos/port/lpcxpresso/m0/port.o
 .bss           0x00000000        0x0 ./freertos/port/lpcxpresso/m0/port.o
 .text.vPortEndScheduler
                0x00000000        0x0 ./freertos/port/lpcxpresso/m0/port.o
 .text          0x00000000        0x0 C:\Documents and Settings\nxp21346\Desktop\LPCXpresso_Fix_Examples\LPCE\CMSISv1p30_LPC11xx\Debug\libCMSISv1p30_LPC11xx.a(core_cm0.o)
 .data          0x00000000        0x0 C:\Documents and Settings\nxp21346\Desktop\LPCXpresso_Fix_Examples\LPCE\CMSISv1p30_LPC11xx\Debug\libCMSISv1p30_LPC11xx.a(core_cm0.o)
 .bss           0x00000000        0x0 C:\Documents and Settings\nxp21346\Desktop\LPCXpresso_Fix_Examples\LPCE\CMSISv1p30_LPC11xx\Debug\libCMSISv1p30_LPC11xx.a(core_cm0.o)
 .text.__get_PSP
                0x00000000        0x0 C:\Documents and Settings\nxp21346\Desktop\LPCXpresso_Fix_Examples\LPCE\CMSISv1p30_LPC11xx\Debug\libCMSISv1p30_LPC11xx.a(core_cm0.o)
 .text.__set_PSP
                0x00000000        0x0 C:\Documents and Settings\nxp21346\Desktop\LPCXpresso_Fix_Examples\LPCE\CMSISv1p30_LPC11xx\Debug\libCMSISv1p30_LPC11xx.a(core_cm0.o)
 .text.__get_MSP
                0x00000000        0x0 C:\Documents and Settings\nxp21346\Desktop\LPCXpresso_Fix_Examples\LPCE\CMSISv1p30_LPC11xx\Debug\libCMSISv1p30_LPC11xx.a(core_cm0.o)
 .text.__set_MSP
                0x00000000        0x0 C:\Documents and Settings\nxp21346\Desktop\LPCXpresso_Fix_Examples\LPCE\CMSISv1p30_LPC11xx\Debug\libCMSISv1p30_LPC11xx.a(core_cm0.o)
 .text.__get_PRIMASK
                0x00000000        0x0 C:\Documents and Settings\nxp21346\Desktop\LPCXpresso_Fix_Examples\LPCE\CMSISv1p30_LPC11xx\Debug\libCMSISv1p30_LPC11xx.a(core_cm0.o)
 .text.__get_CONTROL
                0x00000000        0x0 C:\Documents and Settings\nxp21346\Desktop\LPCXpresso_Fix_Examples\LPCE\CMSISv1p30_LPC11xx\Debug\libCMSISv1p30_LPC11xx.a(core_cm0.o)
 .text.__set_CONTROL
                0x00000000        0x0 C:\Documents and Settings\nxp21346\Desktop\LPCXpresso_Fix_Examples\LPCE\CMSISv1p30_LPC11xx\Debug\libCMSISv1p30_LPC11xx.a(core_cm0.o)
 .text.__REV    0x00000000        0x0 C:\Documents and Settings\nxp21346\Desktop\LPCXpresso_Fix_Examples\LPCE\CMSISv1p30_LPC11xx\Debug\libCMSISv1p30_LPC11xx.a(core_cm0.o)
 .text.__REV16  0x00000000        0x0 C:\Documents and Settings\nxp21346\Desktop\LPCXpresso_Fix_Examples\LPCE\CMSISv1p30_LPC11xx\Debug\libCMSISv1p30_LPC11xx.a(core_cm0.o)
 .text.__REVSH  0x00000000        0x0 C:\Documents and Settings\nxp21346\Desktop\LPCXpresso_Fix_Examples\LPCE\CMSISv1p30_LPC11xx\Debug\libCMSISv1p30_LPC11xx.a(core_cm0.o)
 .text          0x00000000        0x0 C:\Documents and Settings\nxp21346\Desktop\LPCXpresso_Fix_Examples\LPCE\CMSISv1p30_LPC11xx\Debug\libCMSISv1p30_LPC11xx.a(system_LPC11xx.o)
 .bss           0x00000000        0x0 C:\Documents and Settings\nxp21346\Desktop\LPCXpresso_Fix_Examples\LPCE\CMSISv1p30_LPC11xx\Debug\libCMSISv1p30_LPC11xx.a(system_LPC11xx.o)
 .text.SystemCoreClockUpdate
                0x00000000        0x0 C:\Documents and Settings\nxp21346\Desktop\LPCXpresso_Fix_Examples\LPCE\CMSISv1p30_LPC11xx\Debug\libCMSISv1p30_LPC11xx.a(system_LPC11xx.o)
 .rodata        0x00000000        0x0 C:\Documents and Settings\nxp21346\Desktop\LPCXpresso_Fix_Examples\LPCE\CMSISv1p30_LPC11xx\Debug\libCMSISv1p30_LPC11xx.a(system_LPC11xx.o)
 .text          0x00000000        0x0 C:\Documents and Settings\nxp21346\Desktop\LPCXpresso_Fix_Examples\LPCE\lib_small_printf_m0\Lib\liblib_small_printf_m0.a(small_printf_nofloat.o)
 .data          0x00000000        0x0 C:\Documents and Settings\nxp21346\Desktop\LPCXpresso_Fix_Examples\LPCE\lib_small_printf_m0\Lib\liblib_small_printf_m0.a(small_printf_nofloat.o)
 .bss           0x00000000        0x0 C:\Documents and Settings\nxp21346\Desktop\LPCXpresso_Fix_Examples\LPCE\lib_small_printf_m0\Lib\liblib_small_printf_m0.a(small_printf_nofloat.o)
 .text.printf_format_nofloat
                0x00000000        0x0 C:\Documents and Settings\nxp21346\Desktop\LPCXpresso_Fix_Examples\LPCE\lib_small_printf_m0\Lib\liblib_small_printf_m0.a(small_printf_nofloat.o)
 .text.nsprintf
                0x00000000        0x0 C:\Documents and Settings\nxp21346\Desktop\LPCXpresso_Fix_Examples\LPCE\lib_small_printf_m0\Lib\liblib_small_printf_m0.a(small_printf_nofloat.o)
 .text.func_printf_nofloat
                0x00000000        0x0 C:\Documents and Settings\nxp21346\Desktop\LPCXpresso_Fix_Examples\LPCE\lib_small_printf_m0\Lib\liblib_small_printf_m0.a(small_printf_nofloat.o)
 .rodata.str1.1
                0x00000000        0x0 C:\Documents and Settings\nxp21346\Desktop\LPCXpresso_Fix_Examples\LPCE\lib_small_printf_m0\Lib\liblib_small_printf_m0.a(small_printf_nofloat.o)
 .text          0x00000000        0x0 C:\Documents and Settings\nxp21346\Desktop\LPCXpresso_Fix_Examples\LPCE\lib_small_printf_m0\Lib\liblib_small_printf_m0.a(small_printf_support.o)
 .data          0x00000000        0x0 C:\Documents and Settings\nxp21346\Desktop\LPCXpresso_Fix_Examples\LPCE\lib_small_printf_m0\Lib\liblib_small_printf_m0.a(small_printf_support.o)
 .bss           0x00000000        0x0 C:\Documents and Settings\nxp21346\Desktop\LPCXpresso_Fix_Examples\LPCE\lib_small_printf_m0\Lib\liblib_small_printf_m0.a(small_printf_support.o)
 .text.prints   0x00000000        0x0 C:\Documents and Settings\nxp21346\Desktop\LPCXpresso_Fix_Examples\LPCE\lib_small_printf_m0\Lib\liblib_small_printf_m0.a(small_printf_support.o)
 .text.printi   0x00000000        0x0 C:\Documents and Settings\nxp21346\Desktop\LPCXpresso_Fix_Examples\LPCE\lib_small_printf_m0\Lib\liblib_small_printf_m0.a(small_printf_support.o)
 .text.nsprintf_write_init
                0x00000000        0x0 C:\Documents and Settings\nxp21346\Desktop\LPCXpresso_Fix_Examples\LPCE\lib_small_printf_m0\Lib\liblib_small_printf_m0.a(small_printf_support.o)
 .text.nsprintf_write
                0x00000000        0x0 C:\Documents and Settings\nxp21346\Desktop\LPCXpresso_Fix_Examples\LPCE\lib_small_printf_m0\Lib\liblib_small_printf_m0.a(small_printf_support.o)
 .bss.nsprintf_buffer_index
                0x00000000        0x0 C:\Documents and Settings\nxp21346\Desktop\LPCXpresso_Fix_Examples\LPCE\lib_small_printf_m0\Lib\liblib_small_printf_m0.a(small_printf_support.o)
 .bss.nsprintf_buffer
                0x00000000        0x0 C:\Documents and Settings\nxp21346\Desktop\LPCXpresso_Fix_Examples\LPCE\lib_small_printf_m0\Lib\liblib_small_printf_m0.a(small_printf_support.o)
 .bss.nsprintf_buffer_length
                0x00000000        0x0 C:\Documents and Settings\nxp21346\Desktop\LPCXpresso_Fix_Examples\LPCE\lib_small_printf_m0\Lib\liblib_small_printf_m0.a(small_printf_support.o)
 .text          0x00000000        0x0 C:\Documents and Settings\nxp21346\Desktop\LPCXpresso_Fix_Examples\LPCE\lib_small_printf_m0\Lib\liblib_small_printf_m0.a(small_utils.o)
 .data          0x00000000        0x0 C:\Documents and Settings\nxp21346\Desktop\LPCXpresso_Fix_Examples\LPCE\lib_small_printf_m0\Lib\liblib_small_printf_m0.a(small_utils.o)
 .bss           0x00000000        0x0 C:\Documents and Settings\nxp21346\Desktop\LPCXpresso_Fix_Examples\LPCE\lib_small_printf_m0\Lib\liblib_small_printf_m0.a(small_utils.o)
 .text.small_strlen
                0x00000000        0x0 C:\Documents and Settings\nxp21346\Desktop\LPCXpresso_Fix_Examples\LPCE\lib_small_printf_m0\Lib\liblib_small_printf_m0.a(small_utils.o)
 .text.small_strcmp
                0x00000000        0x0 C:\Documents and Settings\nxp21346\Desktop\LPCXpresso_Fix_Examples\LPCE\lib_small_printf_m0\Lib\liblib_small_printf_m0.a(small_utils.o)
 .text.small_stricmp
                0x00000000        0x0 C:\Documents and Settings\nxp21346\Desktop\LPCXpresso_Fix_Examples\LPCE\lib_small_printf_m0\Lib\liblib_small_printf_m0.a(small_utils.o)
 .text.small_strim
                0x00000000        0x0 C:\Documents and Settings\nxp21346\Desktop\LPCXpresso_Fix_Examples\LPCE\lib_small_printf_m0\Lib\liblib_small_printf_m0.a(small_utils.o)
 .text.gethex   0x00000000        0x0 C:\Documents and Settings\nxp21346\Desktop\LPCXpresso_Fix_Examples\LPCE\lib_small_printf_m0\Lib\liblib_small_printf_m0.a(small_utils.o)
 .text.small_fmodf
                0x00000000        0x0 C:\Documents and Settings\nxp21346\Desktop\LPCXpresso_Fix_Examples\LPCE\lib_small_printf_m0\Lib\liblib_small_printf_m0.a(small_utils.o)
 .text          0x00000000        0x0 c:/nxp/lpcxpresso_3.3_beta3/tools/bin/../lib/gcc/arm-none-eabi/4.3.3/../../../../arm-none-eabi/lib/armv6-m\libcr_c.a(__weak__main.o)
 .data          0x00000000        0x0 c:/nxp/lpcxpresso_3.3_beta3/tools/bin/../lib/gcc/arm-none-eabi/4.3.3/../../../../arm-none-eabi/lib/armv6-m\libcr_c.a(__weak__main.o)
 .bss           0x00000000        0x0 c:/nxp/lpcxpresso_3.3_beta3/tools/bin/../lib/gcc/arm-none-eabi/4.3.3/../../../../arm-none-eabi/lib/armv6-m\libcr_c.a(__weak__main.o)
 .bss           0x00000000        0x0 c:/nxp/lpcxpresso_3.3_beta3/tools/bin/../lib/gcc/arm-none-eabi/4.3.3/../../../../arm-none-eabi/lib/armv6-m\libcr_c.a(ctype.o)
 .text          0x00000000        0x0 c:/nxp/lpcxpresso_3.3_beta3/tools/bin/../lib/gcc/arm-none-eabi/4.3.3/../../../../arm-none-eabi/lib/armv6-m\libcr_c.a(memcmp.o)
 .data          0x00000000        0x0 c:/nxp/lpcxpresso_3.3_beta3/tools/bin/../lib/gcc/arm-none-eabi/4.3.3/../../../../arm-none-eabi/lib/armv6-m\libcr_c.a(memcmp.o)
 .bss           0x00000000        0x0 c:/nxp/lpcxpresso_3.3_beta3/tools/bin/../lib/gcc/arm-none-eabi/4.3.3/../../../../arm-none-eabi/lib/armv6-m\libcr_c.a(memcmp.o)
 .text._start_module_memcmp
                0x00000000        0x0 c:/nxp/lpcxpresso_3.3_beta3/tools/bin/../lib/gcc/arm-none-eabi/4.3.3/../../../../arm-none-eabi/lib/armv6-m\libcr_c.a(memcmp.o)
 .text._end_module_memcmp
                0x00000000        0x0 c:/nxp/lpcxpresso_3.3_beta3/tools/bin/../lib/gcc/arm-none-eabi/4.3.3/../../../../arm-none-eabi/lib/armv6-m\libcr_c.a(memcmp.o)
 .text          0x00000000        0x0 c:/nxp/lpcxpresso_3.3_beta3/tools/bin/../lib/gcc/arm-none-eabi/4.3.3/../../../../arm-none-eabi/lib/armv6-m\libcr_c.a(memcpy.o)
 .data          0x00000000        0x0 c:/nxp/lpcxpresso_3.3_beta3/tools/bin/../lib/gcc/arm-none-eabi/4.3.3/../../../../arm-none-eabi/lib/armv6-m\libcr_c.a(memcpy.o)
 .bss           0x00000000        0x0 c:/nxp/lpcxpresso_3.3_beta3/tools/bin/../lib/gcc/arm-none-eabi/4.3.3/../../../../arm-none-eabi/lib/armv6-m\libcr_c.a(memcpy.o)
 .text._start_module_memcpy
                0x00000000        0x0 c:/nxp/lpcxpresso_3.3_beta3/tools/bin/../lib/gcc/arm-none-eabi/4.3.3/../../../../arm-none-eabi/lib/armv6-m\libcr_c.a(memcpy.o)
 .text.memcpy   0x00000000        0x0 c:/nxp/lpcxpresso_3.3_beta3/tools/bin/../lib/gcc/arm-none-eabi/4.3.3/../../../../arm-none-eabi/lib/armv6-m\libcr_c.a(memcpy.o)
 .text._end_module_memcpy
                0x00000000        0x0 c:/nxp/lpcxpresso_3.3_beta3/tools/bin/../lib/gcc/arm-none-eabi/4.3.3/../../../../arm-none-eabi/lib/armv6-m\libcr_c.a(memcpy.o)
 .text          0x00000000        0x0 c:/nxp/lpcxpresso_3.3_beta3/tools/bin/../lib/gcc/arm-none-eabi/4.3.3/../../../../arm-none-eabi/lib/armv6-m\libcr_c.a(memset.o)
 .data          0x00000000        0x0 c:/nxp/lpcxpresso_3.3_beta3/tools/bin/../lib/gcc/arm-none-eabi/4.3.3/../../../../arm-none-eabi/lib/armv6-m\libcr_c.a(memset.o)
 .bss           0x00000000        0x0 c:/nxp/lpcxpresso_3.3_beta3/tools/bin/../lib/gcc/arm-none-eabi/4.3.3/../../../../arm-none-eabi/lib/armv6-m\libcr_c.a(memset.o)
 .text._start_module_memset
                0x00000000        0x0 c:/nxp/lpcxpresso_3.3_beta3/tools/bin/../lib/gcc/arm-none-eabi/4.3.3/../../../../arm-none-eabi/lib/armv6-m\libcr_c.a(memset.o)
 .text._end_module_memset
                0x00000000        0x0 c:/nxp/lpcxpresso_3.3_beta3/tools/bin/../lib/gcc/arm-none-eabi/4.3.3/../../../../arm-none-eabi/lib/armv6-m\libcr_c.a(memset.o)
 .text          0x00000000        0x0 c:/nxp/lpcxpresso_3.3_beta3/tools/bin/../lib/gcc/arm-none-eabi/4.3.3/../../../../arm-none-eabi/lib/armv6-m\libcr_c.a(strncpy.o)
 .data          0x00000000        0x0 c:/nxp/lpcxpresso_3.3_beta3/tools/bin/../lib/gcc/arm-none-eabi/4.3.3/../../../../arm-none-eabi/lib/armv6-m\libcr_c.a(strncpy.o)
 .bss           0x00000000        0x0 c:/nxp/lpcxpresso_3.3_beta3/tools/bin/../lib/gcc/arm-none-eabi/4.3.3/../../../../arm-none-eabi/lib/armv6-m\libcr_c.a(strncpy.o)
 .text._start_module_strncpy
                0x00000000        0x0 c:/nxp/lpcxpresso_3.3_beta3/tools/bin/../lib/gcc/arm-none-eabi/4.3.3/../../../../arm-none-eabi/lib/armv6-m\libcr_c.a(strncpy.o)
 .text._end_module_strncpy
                0x00000000        0x0 c:/nxp/lpcxpresso_3.3_beta3/tools/bin/../lib/gcc/arm-none-eabi/4.3.3/../../../../arm-none-eabi/lib/armv6-m\libcr_c.a(strncpy.o)
 .text          0x00000000        0x0 c:/nxp/lpcxpresso_3.3_beta3/tools/bin/../lib/gcc/arm-none-eabi/4.3.3/../../../../arm-none-eabi/lib/armv6-m\libcr_c.a(__init_alloc.o)
 .data          0x00000000        0x0 c:/nxp/lpcxpresso_3.3_beta3/tools/bin/../lib/gcc/arm-none-eabi/4.3.3/../../../../arm-none-eabi/lib/armv6-m\libcr_c.a(__init_alloc.o)
 .bss           0x00000000        0x0 c:/nxp/lpcxpresso_3.3_beta3/tools/bin/../lib/gcc/arm-none-eabi/4.3.3/../../../../arm-none-eabi/lib/armv6-m\libcr_c.a(__init_alloc.o)
 .text._start_module__init_alloc
                0x00000000        0x0 c:/nxp/lpcxpresso_3.3_beta3/tools/bin/../lib/gcc/arm-none-eabi/4.3.3/../../../../arm-none-eabi/lib/armv6-m\libcr_c.a(__init_alloc.o)
 .text._end_module__init_alloc
                0x00000000        0x0 c:/nxp/lpcxpresso_3.3_beta3/tools/bin/../lib/gcc/arm-none-eabi/4.3.3/../../../../arm-none-eabi/lib/armv6-m\libcr_c.a(__init_alloc.o)
 .text          0x00000000        0x0 c:/nxp/lpcxpresso_3.3_beta3/tools/bin/../lib/gcc/arm-none-eabi/4.3.3/../../../../arm-none-eabi/lib/armv6-m\libcr_semihost.a(cr__read.o)
 .data          0x00000000        0x0 c:/nxp/lpcxpresso_3.3_beta3/tools/bin/../lib/gcc/arm-none-eabi/4.3.3/../../../../arm-none-eabi/lib/armv6-m\libcr_semihost.a(cr__read.o)
 .bss           0x00000000        0x0 c:/nxp/lpcxpresso_3.3_beta3/tools/bin/../lib/gcc/arm-none-eabi/4.3.3/../../../../arm-none-eabi/lib/armv6-m\libcr_semihost.a(cr__read.o)
 .data          0x00000000        0x0 c:/nxp/lpcxpresso_3.3_beta3/tools/bin/../lib/gcc/arm-none-eabi/4.3.3/../../../../arm-none-eabi/lib/armv6-m\libcr_semihost.a(cr__write.o)
 .bss           0x00000000        0x0 c:/nxp/lpcxpresso_3.3_beta3/tools/bin/../lib/gcc/arm-none-eabi/4.3.3/../../../../arm-none-eabi/lib/armv6-m\libcr_semihost.a(cr__write.o)
 .text          0x00000000        0x0 c:/nxp/lpcxpresso_3.3_beta3/tools/bin/../lib/gcc/arm-none-eabi/4.3.3/armv6-m\libcr_eabihelpers.a(double.o)
 .data          0x00000000        0x0 c:/nxp/lpcxpresso_3.3_beta3/tools/bin/../lib/gcc/arm-none-eabi/4.3.3/armv6-m\libcr_eabihelpers.a(double.o)
 .bss           0x00000000        0x0 c:/nxp/lpcxpresso_3.3_beta3/tools/bin/../lib/gcc/arm-none-eabi/4.3.3/armv6-m\libcr_eabihelpers.a(double.o)
 .text.__aeabi_dmul
                0x00000000        0x0 c:/nxp/lpcxpresso_3.3_beta3/tools/bin/../lib/gcc/arm-none-eabi/4.3.3/armv6-m\libcr_eabihelpers.a(double.o)
 .text.__aeabi_ddiv
                0x00000000        0x0 c:/nxp/lpcxpresso_3.3_beta3/tools/bin/../lib/gcc/arm-none-eabi/4.3.3/armv6-m\libcr_eabihelpers.a(double.o)
 .text.__aeabi_dsub
                0x00000000        0x0 c:/nxp/lpcxpresso_3.3_beta3/tools/bin/../lib/gcc/arm-none-eabi/4.3.3/armv6-m\libcr_eabihelpers.a(double.o)
 .text.__aeabi_dadd
                0x00000000        0x0 c:/nxp/lpcxpresso_3.3_beta3/tools/bin/../lib/gcc/arm-none-eabi/4.3.3/armv6-m\libcr_eabihelpers.a(double.o)
 .text.__aeabi_drsub
                0x00000000        0x0 c:/nxp/lpcxpresso_3.3_beta3/tools/bin/../lib/gcc/arm-none-eabi/4.3.3/armv6-m\libcr_eabihelpers.a(double.o)
 .text.__aeabi_dneg
                0x00000000        0x0 c:/nxp/lpcxpresso_3.3_beta3/tools/bin/../lib/gcc/arm-none-eabi/4.3.3/armv6-m\libcr_eabihelpers.a(double.o)
 .text.__aeabi_d2f
                0x00000000        0x0 c:/nxp/lpcxpresso_3.3_beta3/tools/bin/../lib/gcc/arm-none-eabi/4.3.3/armv6-m\libcr_eabihelpers.a(double.o)
 .text.__aeabi_d2iz
                0x00000000        0x0 c:/nxp/lpcxpresso_3.3_beta3/tools/bin/../lib/gcc/arm-none-eabi/4.3.3/armv6-m\libcr_eabihelpers.a(double.o)
 .text.__aeabi_d2uiz
                0x00000000        0x0 c:/nxp/lpcxpresso_3.3_beta3/tools/bin/../lib/gcc/arm-none-eabi/4.3.3/armv6-m\libcr_eabihelpers.a(double.o)
 .text.__aeabi_d2lz
                0x00000000        0x0 c:/nxp/lpcxpresso_3.3_beta3/tools/bin/../lib/gcc/arm-none-eabi/4.3.3/armv6-m\libcr_eabihelpers.a(double.o)
 .text.__aeabi_d2ulz
                0x00000000        0x0 c:/nxp/lpcxpresso_3.3_beta3/tools/bin/../lib/gcc/arm-none-eabi/4.3.3/armv6-m\libcr_eabihelpers.a(double.o)
 .text.__bhs_ui2d
                0x00000000        0x0 c:/nxp/lpcxpresso_3.3_beta3/tools/bin/../lib/gcc/arm-none-eabi/4.3.3/armv6-m\libcr_eabihelpers.a(double.o)
 .text.__bhs_ul2d
                0x00000000        0x0 c:/nxp/lpcxpresso_3.3_beta3/tools/bin/../lib/gcc/arm-none-eabi/4.3.3/armv6-m\libcr_eabihelpers.a(double.o)
 .text.__aeabi_dcmpeq
                0x00000000        0x0 c:/nxp/lpcxpresso_3.3_beta3/tools/bin/../lib/gcc/arm-none-eabi/4.3.3/armv6-m\libcr_eabihelpers.a(double.o)
 .text.__aeabi_dcmplt
                0x00000000        0x0 c:/nxp/lpcxpresso_3.3_beta3/tools/bin/../lib/gcc/arm-none-eabi/4.3.3/armv6-m\libcr_eabihelpers.a(double.o)
 .text.__aeabi_dcmpgt
                0x00000000        0x0 c:/nxp/lpcxpresso_3.3_beta3/tools/bin/../lib/gcc/arm-none-eabi/4.3.3/armv6-m\libcr_eabihelpers.a(double.o)
 .text.__aeabi_dcmple
                0x00000000        0x0 c:/nxp/lpcxpresso_3.3_beta3/tools/bin/../lib/gcc/arm-none-eabi/4.3.3/armv6-m\libcr_eabihelpers.a(double.o)
 .text.__aeabi_dcmpge
                0x00000000        0x0 c:/nxp/lpcxpresso_3.3_beta3/tools/bin/../lib/gcc/arm-none-eabi/4.3.3/armv6-m\libcr_eabihelpers.a(double.o)
 .text.__aeabi_dcmpun
                0x00000000        0x0 c:/nxp/lpcxpresso_3.3_beta3/tools/bin/../lib/gcc/arm-none-eabi/4.3.3/armv6-m\libcr_eabihelpers.a(double.o)
 .text.__aeabi_ui2d
                0x00000000        0x0 c:/nxp/lpcxpresso_3.3_beta3/tools/bin/../lib/gcc/arm-none-eabi/4.3.3/armv6-m\libcr_eabihelpers.a(double.o)
 .text.__aeabi_i2d
                0x00000000        0x0 c:/nxp/lpcxpresso_3.3_beta3/tools/bin/../lib/gcc/arm-none-eabi/4.3.3/armv6-m\libcr_eabihelpers.a(double.o)
 .text.__aeabi_l2d
                0x00000000        0x0 c:/nxp/lpcxpresso_3.3_beta3/tools/bin/../lib/gcc/arm-none-eabi/4.3.3/armv6-m\libcr_eabihelpers.a(double.o)
 .text.__aeabi_ul2d
                0x00000000        0x0 c:/nxp/lpcxpresso_3.3_beta3/tools/bin/../lib/gcc/arm-none-eabi/4.3.3/armv6-m\libcr_eabihelpers.a(double.o)
 .data          0x00000000        0x0 c:/nxp/lpcxpresso_3.3_beta3/tools/bin/../lib/gcc/arm-none-eabi/4.3.3/armv6-m\libcr_eabihelpers.a(helpers.o)
 .bss           0x00000000        0x0 c:/nxp/lpcxpresso_3.3_beta3/tools/bin/../lib/gcc/arm-none-eabi/4.3.3/armv6-m\libcr_eabihelpers.a(helpers.o)
 .text          0x00000000        0x0 c:/nxp/lpcxpresso_3.3_beta3/tools/bin/../lib/gcc/arm-none-eabi/4.3.3/armv6-m\libcr_eabihelpers.a(rtlib.o)
 .data          0x00000000        0x0 c:/nxp/lpcxpresso_3.3_beta3/tools/bin/../lib/gcc/arm-none-eabi/4.3.3/armv6-m\libcr_eabihelpers.a(rtlib.o)
 .bss           0x00000000        0x0 c:/nxp/lpcxpresso_3.3_beta3/tools/bin/../lib/gcc/arm-none-eabi/4.3.3/armv6-m\libcr_eabihelpers.a(rtlib.o)
 .text.__aeabi_lmul
                0x00000000        0x0 c:/nxp/lpcxpresso_3.3_beta3/tools/bin/../lib/gcc/arm-none-eabi/4.3.3/armv6-m\libcr_eabihelpers.a(rtlib.o)
 .text.__aeabi_llsl
                0x00000000        0x0 c:/nxp/lpcxpresso_3.3_beta3/tools/bin/../lib/gcc/arm-none-eabi/4.3.3/armv6-m\libcr_eabihelpers.a(rtlib.o)
 .text.__aeabi_llsr
                0x00000000        0x0 c:/nxp/lpcxpresso_3.3_beta3/tools/bin/../lib/gcc/arm-none-eabi/4.3.3/armv6-m\libcr_eabihelpers.a(rtlib.o)
 .text.__aeabi_lasr
                0x00000000        0x0 c:/nxp/lpcxpresso_3.3_beta3/tools/bin/../lib/gcc/arm-none-eabi/4.3.3/armv6-m\libcr_eabihelpers.a(rtlib.o)
 .text.__aeabi_lcmp
                0x00000000        0x0 c:/nxp/lpcxpresso_3.3_beta3/tools/bin/../lib/gcc/arm-none-eabi/4.3.3/armv6-m\libcr_eabihelpers.a(rtlib.o)
 .text.__aeabi_ulcmp
                0x00000000        0x0 c:/nxp/lpcxpresso_3.3_beta3/tools/bin/../lib/gcc/arm-none-eabi/4.3.3/armv6-m\libcr_eabihelpers.a(rtlib.o)
 .text.__aeabi_uread4
                0x00000000        0x0 c:/nxp/lpcxpresso_3.3_beta3/tools/bin/../lib/gcc/arm-none-eabi/4.3.3/armv6-m\libcr_eabihelpers.a(rtlib.o)
 .text.__aeabi_uread8
                0x00000000        0x0 c:/nxp/lpcxpresso_3.3_beta3/tools/bin/../lib/gcc/arm-none-eabi/4.3.3/armv6-m\libcr_eabihelpers.a(rtlib.o)
 .text.__aeabi_uwrite4
                0x00000000        0x0 c:/nxp/lpcxpresso_3.3_beta3/tools/bin/../lib/gcc/arm-none-eabi/4.3.3/armv6-m\libcr_eabihelpers.a(rtlib.o)
 .text.__aeabi_uwrite8
                0x00000000        0x0 c:/nxp/lpcxpresso_3.3_beta3/tools/bin/../lib/gcc/arm-none-eabi/4.3.3/armv6-m\libcr_eabihelpers.a(rtlib.o)
 .text.__aeabi_memcpy
                0x00000000        0x0 c:/nxp/lpcxpresso_3.3_beta3/tools/bin/../lib/gcc/arm-none-eabi/4.3.3/armv6-m\libcr_eabihelpers.a(rtlib.o)
 .text.__aeabi_memcpy4
                0x00000000        0x0 c:/nxp/lpcxpresso_3.3_beta3/tools/bin/../lib/gcc/arm-none-eabi/4.3.3/armv6-m\libcr_eabihelpers.a(rtlib.o)
 .text.__aeabi_memmove4
                0x00000000        0x0 c:/nxp/lpcxpresso_3.3_beta3/tools/bin/../lib/gcc/arm-none-eabi/4.3.3/armv6-m\libcr_eabihelpers.a(rtlib.o)
 .text.__aeabi_memset
                0x00000000        0x0 c:/nxp/lpcxpresso_3.3_beta3/tools/bin/../lib/gcc/arm-none-eabi/4.3.3/armv6-m\libcr_eabihelpers.a(rtlib.o)
 .text.__aeabi_memset4
                0x00000000        0x0 c:/nxp/lpcxpresso_3.3_beta3/tools/bin/../lib/gcc/arm-none-eabi/4.3.3/armv6-m\libcr_eabihelpers.a(rtlib.o)
 .text.__aeabi_memclr
                0x00000000        0x0 c:/nxp/lpcxpresso_3.3_beta3/tools/bin/../lib/gcc/arm-none-eabi/4.3.3/armv6-m\libcr_eabihelpers.a(rtlib.o)
 .text.__aeabi_memclr4
                0x00000000        0x0 c:/nxp/lpcxpresso_3.3_beta3/tools/bin/../lib/gcc/arm-none-eabi/4.3.3/armv6-m\libcr_eabihelpers.a(rtlib.o)
 .text.__aeabi_memmove
                0x00000000        0x0 c:/nxp/lpcxpresso_3.3_beta3/tools/bin/../lib/gcc/arm-none-eabi/4.3.3/armv6-m\libcr_eabihelpers.a(rtlib.o)
 .text.__aeabi_idiv
                0x00000000        0x0 c:/nxp/lpcxpresso_3.3_beta3/tools/bin/../lib/gcc/arm-none-eabi/4.3.3/armv6-m\libcr_eabihelpers.a(rtlib.o)

Memory Configuration

Name             Origin             Length             Attributes
MFlash32         0x00000000         0x00008000         xr
RamLoc8          0x10000000         0x00002000         xrw
*default*        0x00000000         0xffffffff

Linker script and memory map

LOAD ./src/cr_startup_lpc11.o
LOAD ./src/debug.o
LOAD ./src/main.o
LOAD ./src/small_gpio.o
LOAD ./freertos/src/croutine.o
LOAD ./freertos/src/list.o
LOAD ./freertos/src/queue.o
LOAD ./freertos/src/tasks.o
LOAD ./freertos/port/memmang/heap_2.o
LOAD ./freertos/port/lpcxpresso/m0/port.o
LOAD C:\Documents and Settings\nxp21346\Desktop\LPCXpresso_Fix_Examples\LPCE\CMSISv1p30_LPC11xx\Debug\libCMSISv1p30_LPC11xx.a
LOAD C:\Documents and Settings\nxp21346\Desktop\LPCXpresso_Fix_Examples\LPCE\lib_small_printf_m0\Lib\liblib_small_printf_m0.a
START GROUP
LOAD c:/nxp/lpcxpresso_3.3_beta3/tools/bin/../lib/gcc/arm-none-eabi/4.3.3/../../../../arm-none-eabi/lib/armv6-m\libcr_c.a
LOAD c:/nxp/lpcxpresso_3.3_beta3/tools/bin/../lib/gcc/arm-none-eabi/4.3.3/../../../../arm-none-eabi/lib/armv6-m\libcr_semihost.a
LOAD c:/nxp/lpcxpresso_3.3_beta3/tools/bin/../lib/gcc/arm-none-eabi/4.3.3/armv6-m\libcr_eabihelpers.a
END GROUP
                0x00008000                __top_MFlash32 = 0x8000
                0x10002000                __top_RamLoc8 = 0x10002000

.text           0x00000000     0x1c4e
 *(.isr_vector)
 .isr_vector    0x00000000       0xc0 ./src/cr_startup_lpc11.o
                0x00000000                g_pfnVectors
 *(.text*)
 .text.NMI_Handler
                0x000000c0        0x4 ./src/cr_startup_lpc11.o
                0x000000c0                NMI_Handler
 .text.HardFault_Handler
                0x000000c4        0x4 ./src/cr_startup_lpc11.o
                0x000000c4                HardFault_Handler
 .text.IntDefaultHandler
                0x000000c8        0x4 ./src/cr_startup_lpc11.o
                0x000000c8                TIMER16_0_IRQHandler
                0x000000c8                UART_IRQHandler
                0x000000c8                TIMER32_0_IRQHandler
                0x000000c8                TIMER32_1_IRQHandler
                0x000000c8                IntDefaultHandler
                0x000000c8                PIOINT1_IRQHandler
                0x000000c8                CAN_IRQHandler
                0x000000c8                SSP0_IRQHandler
                0x000000c8                TIMER16_1_IRQHandler
                0x000000c8                ADC_IRQHandler
                0x000000c8                SSP1_IRQHandler
                0x000000c8                PIOINT2_IRQHandler
                0x000000c8                BOD_IRQHandler
                0x000000c8                WAKEUP_IRQHandler
                0x000000c8                PIOINT0_IRQHandler
                0x000000c8                I2C_IRQHandler
                0x000000c8                WDT_IRQHandler
                0x000000c8                PIOINT3_IRQHandler
 .text.ResetISR
                0x000000cc       0x44 ./src/cr_startup_lpc11.o
                0x000000cc                ResetISR
 .text._debug_printf_flush
                0x00000110       0x50 ./src/debug.o
                0x00000110                __CR_SEMIHOST
                0x00000110                _debug_printf_flush
 .text._debug_putchar
                0x00000160       0x48 ./src/debug.o
                0x00000160                _debug_putchar
 .text._debug_puts
                0x000001a8       0x1c ./src/debug.o
                0x000001a8                _debug_puts
 .text.vApplicationStackOverflowHook
                0x000001c4       0x24 ./src/main.o
                0x000001c4                vApplicationStackOverflowHook
 .text.vTaskLEDBlinker1
                0x000001e8       0x24 ./src/main.o
                0x000001e8                vTaskLEDBlinker1
 .text.vTaskLEDBlinker2
                0x0000020c       0x24 ./src/main.o
                0x0000020c                vTaskLEDBlinker2
 .text.vTaskDebuggerHeartbeat
                0x00000230       0x24 ./src/main.o
                0x00000230                vTaskDebuggerHeartbeat
 .text.SetSegment
                0x00000254       0x88 ./src/main.o
                0x00000254                SetSegment
 .text.Init7Segment
                0x000002dc       0x60 ./src/main.o
                0x000002dc                Init7Segment
 .text.vTask7SegmentCounter
                0x0000033c       0x34 ./src/main.o
                0x0000033c                vTask7SegmentCounter
 .text.vApplicationIdleHook
                0x00000370        0xc ./src/main.o
                0x00000370                vApplicationIdleHook
 .text.__WFI    0x0000037c        0xc ./src/main.o
 .text.main     0x00000388       0xcc ./src/main.o
                0x00000388                main
 .text.vListInitialise
                0x00000454       0x18 ./freertos/src/list.o
                0x00000454                vListInitialise
 .text.vListInitialiseItem
                0x0000046c        0x8 ./freertos/src/list.o
                0x0000046c                vListInitialiseItem
 .text.vListInsertEnd
                0x00000474       0x1c ./freertos/src/list.o
                0x00000474                vListInsertEnd
 .text.vListInsert
                0x00000490       0x30 ./freertos/src/list.o
                0x00000490                vListInsert
 .text.vListRemove
                0x000004c0       0x24 ./freertos/src/list.o
                0x000004c0                vListRemove
 .text.vTaskSuspendAll
                0x000004e4       0x10 ./freertos/src/tasks.o
                0x000004e4                vTaskSuspendAll
 .text.vTaskIncrementTick
                0x000004f4       0xac ./freertos/src/tasks.o
                0x000004f4                vTaskIncrementTick
 .text.vTaskSwitchContext
                0x000005a0       0xa0 ./freertos/src/tasks.o
                0x000005a0                vTaskSwitchContext
 .text.xTaskResumeAll
                0x00000640       0xcc ./freertos/src/tasks.o
                0x00000640                xTaskResumeAll
 .text.vTaskDelay
                0x0000070c       0x54 ./freertos/src/tasks.o
                0x0000070c                vTaskDelay
 .text.prvIdleTask
                0x00000760       0x74 ./freertos/src/tasks.o
 .text.xTaskCreate
                0x000007d4      0x184 ./freertos/src/tasks.o
                0x000007d4                xTaskCreate
 .text.vTaskStartScheduler
                0x00000958       0x44 ./freertos/src/tasks.o
                0x00000958                vTaskStartScheduler
 .text.pvPortMalloc
                0x0000099c      0x160 ./freertos/port/memmang/heap_2.o
                0x0000099c                pvPortMalloc
 .text.vPortFree
                0x00000afc       0x7c ./freertos/port/memmang/heap_2.o
                0x00000afc                vPortFree
 .text.pxPortInitialiseStack
                0x00000b78       0x48 ./freertos/port/lpcxpresso/m0/port.o
                0x00000b78                pxPortInitialiseStack
 .text.vPortSVCHandler
                0x00000bc0       0x24 ./freertos/port/lpcxpresso/m0/port.o
                0x00000bc0                vPortSVCHandler
 .text.vPortStartFirstTask
                0x00000be4        0xc ./freertos/port/lpcxpresso/m0/port.o
                0x00000be4                vPortStartFirstTask
 .text.xPortStartScheduler
                0x00000bf0       0x44 ./freertos/port/lpcxpresso/m0/port.o
                0x00000bf0                xPortStartScheduler
 .text.SysTick_Config
                0x00000c34       0x50 ./freertos/port/lpcxpresso/m0/port.o
 .text.NVIC_SetPriority
                0x00000c84       0xf0 ./freertos/port/lpcxpresso/m0/port.o
 .text.vPortYieldFromISR
                0x00000d74       0x14 ./freertos/port/lpcxpresso/m0/port.o
                0x00000d74                vPortYieldFromISR
 .text.vPortEnterCritical
                0x00000d88       0x1c ./freertos/port/lpcxpresso/m0/port.o
                0x00000d88                vPortEnterCritical
 .text.vPortExitCritical
                0x00000da4       0x24 ./freertos/port/lpcxpresso/m0/port.o
                0x00000da4                vPortExitCritical
 .text.xPortPendSVHandler
                0x00000dc8       0x74 ./freertos/port/lpcxpresso/m0/port.o
                0x00000dc8                xPortPendSVHandler
 .text.xPortSysTickHandler
                0x00000e3c       0x2c ./freertos/port/lpcxpresso/m0/port.o
                0x00000e3c                xPortSysTickHandler
 .text.__set_PRIMASK
                0x00000e68       0x14 C:\Documents and Settings\nxp21346\Desktop\LPCXpresso_Fix_Examples\LPCE\CMSISv1p30_LPC11xx\Debug\libCMSISv1p30_LPC11xx.a(core_cm0.o)
                0x00000e68                __set_PRIMASK
 .text.SystemInit
                0x00000e7c       0xe0 C:\Documents and Settings\nxp21346\Desktop\LPCXpresso_Fix_Examples\LPCE\CMSISv1p30_LPC11xx\Debug\libCMSISv1p30_LPC11xx.a(system_LPC11xx.o)
                0x00000e7c                SystemInit
 .text.__NOP    0x00000f5c        0xc C:\Documents and Settings\nxp21346\Desktop\LPCXpresso_Fix_Examples\LPCE\CMSISv1p30_LPC11xx\Debug\libCMSISv1p30_LPC11xx.a(system_LPC11xx.o)
 .text.__weak_main
                0x00000f68       0x14 c:/nxp/lpcxpresso_3.3_beta3/tools/bin/../lib/gcc/arm-none-eabi/4.3.3/../../../../arm-none-eabi/lib/armv6-m\libcr_c.a(__weak__main.o)
                0x00000f68                __main
                0x00000f68                __weak_main
 .text          0x00000f7c      0x338 c:/nxp/lpcxpresso_3.3_beta3/tools/bin/../lib/gcc/arm-none-eabi/4.3.3/../../../../arm-none-eabi/lib/armv6-m\libcr_c.a(ctype.o)
                0x00000f7c                _start_module_ctype
                0x00001050                islower
                0x00001140                tolower
                0x000010a0                ispunct
                0x000010c8                isspace
                0x000012a8                _end_module_ctype
                0x00001118                isxdigit
                0x00001240                _ctype_init
                0x000010f0                isupper
                0x00000fb0                isalpha
                0x00001028                isgraph
                0x00000f88                isalnum
                0x00001078                isprint
                0x000011c0                _set_ctype_8859
                0x00001000                isdigit
                0x00000fd8                iscntrl
                0x00001180                toupper
 .text.memcmp   0x000012b4       0x50 c:/nxp/lpcxpresso_3.3_beta3/tools/bin/../lib/gcc/arm-none-eabi/4.3.3/../../../../arm-none-eabi/lib/armv6-m\libcr_c.a(memcmp.o)
                0x000012b4                memcmp
 .text.memset   0x00001304       0x50 c:/nxp/lpcxpresso_3.3_beta3/tools/bin/../lib/gcc/arm-none-eabi/4.3.3/../../../../arm-none-eabi/lib/armv6-m\libcr_c.a(memset.o)
                0x00001304                memset
 .text.strncpy  0x00001354       0x78 c:/nxp/lpcxpresso_3.3_beta3/tools/bin/../lib/gcc/arm-none-eabi/4.3.3/../../../../arm-none-eabi/lib/armv6-m\libcr_c.a(strncpy.o)
                0x00001354                strncpy
 .text._init_alloc
                0x000013cc       0x14 c:/nxp/lpcxpresso_3.3_beta3/tools/bin/../lib/gcc/arm-none-eabi/4.3.3/../../../../arm-none-eabi/lib/armv6-m\libcr_c.a(__init_alloc.o)
                0x000013cc                _init_alloc
 .text          0x000013e0       0x1c c:/nxp/lpcxpresso_3.3_beta3/tools/bin/../lib/gcc/arm-none-eabi/4.3.3/../../../../arm-none-eabi/lib/armv6-m\libcr_semihost.a(cr__write.o)
                0x000013e0                __write
 .text          0x000013fc       0x88 c:/nxp/lpcxpresso_3.3_beta3/tools/bin/../lib/gcc/arm-none-eabi/4.3.3/armv6-m\libcr_eabihelpers.a(helpers.o)
                0x00001426                __ARM_call_via_r7
                0x00001468                __aeabi_uldivmod
                0x00001422                __ARM_call_via_r5
                0x0000142a                __ARM_call_via_r9
                0x0000141a                __ARM_call_via_r1
                0x00001424                __ARM_call_via_r6
                0x0000142e                __ARM_call_via_r11
                0x00001428                __ARM_call_via_r8
                0x0000141e                __ARM_call_via_r3
                0x00001418                __ARM_call_via_r0
                0x00001430                __ARM_call_via_r12
                0x0000142c                __ARM_call_via_r10
                0x00001440                __aeabi_uidivmod
                0x00001420                __ARM_call_via_r4
                0x0000141c                __ARM_call_via_r2
                0x00001432                __aeabi_idivmod
                0x0000144e                __aeabi_ldivmod
                0x000013fc                __ARM_switch8
 .text.__aeabi_idiv0
                0x00001484        0x4 c:/nxp/lpcxpresso_3.3_beta3/tools/bin/../lib/gcc/arm-none-eabi/4.3.3/armv6-m\libcr_eabihelpers.a(rtlib.o)
                0x00001484                __aeabi_idiv0
 .text.__bhs_uidivmod
                0x00001488       0x88 c:/nxp/lpcxpresso_3.3_beta3/tools/bin/../lib/gcc/arm-none-eabi/4.3.3/armv6-m\libcr_eabihelpers.a(rtlib.o)
                0x00001488                __bhs_uidivmod
 .text.__aeabi_ldiv0
                0x00001510        0x4 c:/nxp/lpcxpresso_3.3_beta3/tools/bin/../lib/gcc/arm-none-eabi/4.3.3/armv6-m\libcr_eabihelpers.a(rtlib.o)
                0x00001510                __aeabi_ldiv0
 .text.__aeabi_uidiv
                0x00001514       0x74 c:/nxp/lpcxpresso_3.3_beta3/tools/bin/../lib/gcc/arm-none-eabi/4.3.3/armv6-m\libcr_eabihelpers.a(rtlib.o)
                0x00001514                __aeabi_uidiv
 .text.__bhs_idivmod
                0x00001588       0xb8 c:/nxp/lpcxpresso_3.3_beta3/tools/bin/../lib/gcc/arm-none-eabi/4.3.3/armv6-m\libcr_eabihelpers.a(rtlib.o)
                0x00001588                __bhs_idivmod
 .text.__bhs_uldivmod
                0x00001640      0x21c c:/nxp/lpcxpresso_3.3_beta3/tools/bin/../lib/gcc/arm-none-eabi/4.3.3/armv6-m\libcr_eabihelpers.a(rtlib.o)
                0x00001640                __bhs_uldivmod
 .text.__bhs_ldivmod
                0x0000185c      0x274 c:/nxp/lpcxpresso_3.3_beta3/tools/bin/../lib/gcc/arm-none-eabi/4.3.3/armv6-m\libcr_eabihelpers.a(rtlib.o)
                0x0000185c                __bhs_ldivmod
 *(.rodata*)
 .rodata        0x00001ad0      0x158 ./src/main.o
 .rodata.segmentlut
                0x00001c28        0xa ./src/main.o
 .rodata.str1.1
                0x00001c32        0x5 ./freertos/src/tasks.o
 .rodata.ucExpectedStackBytes.2277
                0x00001c37       0x14 ./freertos/src/tasks.o
 *fill*         0x00001c4b        0x1 00
 .rodata.heapSTRUCT_SIZE
                0x00001c4c        0x2 ./freertos/port/memmang/heap_2.o

.glue_7         0x00001c50        0x0 load address 0x00001c4e
 .glue_7        0x00000000        0x0 linker stubs

.glue_7t        0x00001c50        0x0 load address 0x00001c4e
 .glue_7t       0x00000000        0x0 linker stubs

.vfp11_veneer   0x00001c50        0x0 load address 0x00001c4e
 .vfp11_veneer  0x00000000        0x0 linker stubs

.v4_bx          0x00001c50        0x0 load address 0x00001c4e
 .v4_bx         0x00000000        0x0 linker stubs

.ARM.extab
 *(.ARM.extab* .gnu.linkonce.armextab.*)
                0x00001c50                __exidx_start = .

.ARM.exidx
 *(.ARM.exidx* .gnu.linkonce.armexidx.*)
                0x00001c50                __exidx_end = .
                0x00001c50                _etext = .

.data           0x10000000      0x20c load address 0x00001c4e
                0x10000000                _data = .
 *(vtable)
 *(.data*)
 .data.uxCriticalNesting
                0x10000000        0x4 ./freertos/port/lpcxpresso/m0/port.o
 .data          0x10000004        0x4 C:\Documents and Settings\nxp21346\Desktop\LPCXpresso_Fix_Examples\LPCE\CMSISv1p30_LPC11xx\Debug\libCMSISv1p30_LPC11xx.a(system_LPC11xx.o)
                0x10000004                SystemCoreClock
 .data          0x10000008      0x204 c:/nxp/lpcxpresso_3.3_beta3/tools/bin/../lib/gcc/arm-none-eabi/4.3.3/../../../../arm-none-eabi/lib/armv6-m\libcr_c.a(ctype.o)
                0x10000008                __ctype
                0x1000020c                _edata = .

.bss            0x1000020c      0x948 load address 0x00001e5a
                0x1000020c                _bss = .
 *(.bss*)
 .bss.debug_buf_write_index
                0x1000020c        0x1 ./src/debug.o
 .bss.debug_buf_read_index
                0x1000020d        0x1 ./src/debug.o
 .bss.debug_write_buf
                0x1000020e       0x52 ./src/debug.o
 .bss.i.1824    0x10000260        0x4 ./src/main.o
 .bss.uxMissedTicks
                0x10000264        0x4 ./freertos/src/tasks.o
 .bss.uxTopUsedPriority
                0x10000268        0x4 ./freertos/src/tasks.o
 .bss.pxDelayedTaskList
                0x1000026c        0x4 ./freertos/src/tasks.o
 .bss.xSchedulerRunning
                0x10000270        0x4 ./freertos/src/tasks.o
 .bss.uxTasksDeleted
                0x10000274        0x4 ./freertos/src/tasks.o
 .bss.xNumOfOverflows
                0x10000278        0x4 ./freertos/src/tasks.o
 .bss.pxOverflowDelayedTaskList
                0x1000027c        0x4 ./freertos/src/tasks.o
 .bss.pxReadyTasksLists
                0x10000280       0x64 ./freertos/src/tasks.o
 .bss.pxCurrentTCB
                0x100002e4        0x4 ./freertos/src/tasks.o
                0x100002e4                pxCurrentTCB
 .bss.xPendingReadyList
                0x100002e8       0x14 ./freertos/src/tasks.o
 .bss.xDelayedTaskList1
                0x100002fc       0x14 ./freertos/src/tasks.o
 .bss.xTickCount
                0x10000310        0x4 ./freertos/src/tasks.o
 .bss.uxSchedulerSuspended
                0x10000314        0x4 ./freertos/src/tasks.o
 .bss.xDelayedTaskList2
                0x10000318       0x14 ./freertos/src/tasks.o
 .bss.uxTaskNumber
                0x1000032c        0x4 ./freertos/src/tasks.o
 .bss.uxCurrentNumberOfTasks
                0x10000330        0x4 ./freertos/src/tasks.o
 .bss.xTasksWaitingTermination
                0x10000334       0x14 ./freertos/src/tasks.o
 .bss.xMissedYield
                0x10000348        0x4 ./freertos/src/tasks.o
 .bss.xSuspendedTaskList
                0x1000034c       0x14 ./freertos/src/tasks.o
 .bss.uxTopReadyPriority
                0x10000360        0x4 ./freertos/src/tasks.o
 .bss.totalinuse
                0x10000364        0x4 ./freertos/port/memmang/heap_2.o
 .bss.xHeapHasBeenInitialised.1796
                0x10000368        0x4 ./freertos/port/memmang/heap_2.o
 .bss.xHeap     0x1000036c      0x7d0 ./freertos/port/memmang/heap_2.o
 .bss.xStart    0x10000b3c        0x8 ./freertos/port/memmang/heap_2.o
 .bss.xEnd      0x10000b44        0x8 ./freertos/port/memmang/heap_2.o
 *(COMMON)
 COMMON         0x10000b4c        0x8 c:/nxp/lpcxpresso_3.3_beta3/tools/bin/../lib/gcc/arm-none-eabi/4.3.3/../../../../arm-none-eabi/lib/armv6-m\libcr_c.a(__init_alloc.o)
                0x10000b4c                __heaps
                0x10000b50                __end_of_heap
                0x10000b54                _ebss = .

.cr_heap        0x10000b54        0x0 load address 0x00001e5a
                0x10000b54                end = .
                0x10000b54                _pvHeapStart = .
                0x10002000                _vRamTop = __top_RamLoc8
                0x10001ff0                _vStackTop = (_vRamTop - 0x10)
OUTPUT(freertos_111x.axf elf32-littlearm)

.debug_abbrev   0x00000000     0x125f
 .debug_abbrev  0x00000000       0xbd ./src/cr_startup_lpc11.o
 .debug_abbrev  0x000000bd      0x121 ./src/debug.o
 .debug_abbrev  0x000001de      0x106 ./src/main.o
 .debug_abbrev  0x000002e4       0x6c ./src/small_gpio.o
 .debug_abbrev  0x00000350      0x1e8 ./freertos/src/croutine.o
 .debug_abbrev  0x00000538       0xf2 ./freertos/src/list.o
 .debug_abbrev  0x0000062a      0x209 ./freertos/src/queue.o
 .debug_abbrev  0x00000833      0x240 ./freertos/src/tasks.o
 .debug_abbrev  0x00000a73      0x154 ./freertos/port/memmang/heap_2.o
 .debug_abbrev  0x00000bc7      0x1be ./freertos/port/lpcxpresso/m0/port.o
 .debug_abbrev  0x00000d85       0xd0 C:\Documents and Settings\nxp21346\Desktop\LPCXpresso_Fix_Examples\LPCE\CMSISv1p30_LPC11xx\Debug\libCMSISv1p30_LPC11xx.a(core_cm0.o)
 .debug_abbrev  0x00000e55       0xd7 C:\Documents and Settings\nxp21346\Desktop\LPCXpresso_Fix_Examples\LPCE\CMSISv1p30_LPC11xx\Debug\libCMSISv1p30_LPC11xx.a(system_LPC11xx.o)
 .debug_abbrev  0x00000f2c      0x162 C:\Documents and Settings\nxp21346\Desktop\LPCXpresso_Fix_Examples\LPCE\lib_small_printf_m0\Lib\liblib_small_printf_m0.a(small_printf_nofloat.o)
 .debug_abbrev  0x0000108e      0x118 C:\Documents and Settings\nxp21346\Desktop\LPCXpresso_Fix_Examples\LPCE\lib_small_printf_m0\Lib\liblib_small_printf_m0.a(small_printf_support.o)
 .debug_abbrev  0x000011a6       0xb9 C:\Documents and Settings\nxp21346\Desktop\LPCXpresso_Fix_Examples\LPCE\lib_small_printf_m0\Lib\liblib_small_printf_m0.a(small_utils.o)

.debug_info     0x00000000     0x3957
 .debug_info    0x00000000      0x16e ./src/cr_startup_lpc11.o
 .debug_info    0x0000016e      0x234 ./src/debug.o
 .debug_info    0x000003a2      0x253 ./src/main.o
 .debug_info    0x000005f5       0xab ./src/small_gpio.o
 .debug_info    0x000006a0      0x518 ./freertos/src/croutine.o
 .debug_info    0x00000bb8      0x2a8 ./freertos/src/list.o
 .debug_info    0x00000e60      0x858 ./freertos/src/queue.o
 .debug_info    0x000016b8      0xc67 ./freertos/src/tasks.o
 .debug_info    0x0000231f      0x2a5 ./freertos/port/memmang/heap_2.o
 .debug_info    0x000025c4      0x527 ./freertos/port/lpcxpresso/m0/port.o
 .debug_info    0x00002aeb      0x2a7 C:\Documents and Settings\nxp21346\Desktop\LPCXpresso_Fix_Examples\LPCE\CMSISv1p30_LPC11xx\Debug\libCMSISv1p30_LPC11xx.a(core_cm0.o)
 .debug_info    0x00002d92      0x4e5 C:\Documents and Settings\nxp21346\Desktop\LPCXpresso_Fix_Examples\LPCE\CMSISv1p30_LPC11xx\Debug\libCMSISv1p30_LPC11xx.a(system_LPC11xx.o)
 .debug_info    0x00003277      0x256 C:\Documents and Settings\nxp21346\Desktop\LPCXpresso_Fix_Examples\LPCE\lib_small_printf_m0\Lib\liblib_small_printf_m0.a(small_printf_nofloat.o)
 .debug_info    0x000034cd      0x2c3 C:\Documents and Settings\nxp21346\Desktop\LPCXpresso_Fix_Examples\LPCE\lib_small_printf_m0\Lib\liblib_small_printf_m0.a(small_printf_support.o)
 .debug_info    0x00003790      0x1c7 C:\Documents and Settings\nxp21346\Desktop\LPCXpresso_Fix_Examples\LPCE\lib_small_printf_m0\Lib\liblib_small_printf_m0.a(small_utils.o)

.debug_line     0x00000000     0x464e
 .debug_line    0x00000000      0x306 ./src/cr_startup_lpc11.o
 .debug_line    0x00000306      0x4a1 ./src/debug.o
 .debug_line    0x000007a7      0x662 ./src/main.o
 .debug_line    0x00000e09      0x33d ./src/small_gpio.o
 .debug_line    0x00001146      0x5ab ./freertos/src/croutine.o
 .debug_line    0x000016f1      0x580 ./freertos/src/list.o
 .debug_line    0x00001c71      0x71c ./freertos/src/queue.o
 .debug_line    0x0000238d      0x85b ./freertos/src/tasks.o
 .debug_line    0x00002be8      0x55a ./freertos/port/memmang/heap_2.o
 .debug_line    0x00003142      0x5f1 ./freertos/port/lpcxpresso/m0/port.o
 .debug_line    0x00003733      0x318 C:\Documents and Settings\nxp21346\Desktop\LPCXpresso_Fix_Examples\LPCE\CMSISv1p30_LPC11xx\Debug\libCMSISv1p30_LPC11xx.a(core_cm0.o)
 .debug_line    0x00003a4b      0x348 C:\Documents and Settings\nxp21346\Desktop\LPCXpresso_Fix_Examples\LPCE\CMSISv1p30_LPC11xx\Debug\libCMSISv1p30_LPC11xx.a(system_LPC11xx.o)
 .debug_line    0x00003d93      0x3cf C:\Documents and Settings\nxp21346\Desktop\LPCXpresso_Fix_Examples\LPCE\lib_small_printf_m0\Lib\liblib_small_printf_m0.a(small_printf_nofloat.o)
 .debug_line    0x00004162      0x3ba C:\Documents and Settings\nxp21346\Desktop\LPCXpresso_Fix_Examples\LPCE\lib_small_printf_m0\Lib\liblib_small_printf_m0.a(small_printf_support.o)
 .debug_line    0x0000451c      0x132 C:\Documents and Settings\nxp21346\Desktop\LPCXpresso_Fix_Examples\LPCE\lib_small_printf_m0\Lib\liblib_small_printf_m0.a(small_utils.o)

.debug_macinfo  0x00000000    0x4214d
 .debug_macinfo
                0x00000000     0x268b ./src/cr_startup_lpc11.o
 .debug_macinfo
                0x0000268b     0x4806 ./src/debug.o
 .debug_macinfo
                0x00006e91     0x623b ./src/main.o
 .debug_macinfo
                0x0000d0cc     0x4a3e ./src/small_gpio.o
 .debug_macinfo
                0x00011b0a     0x60ce ./freertos/src/croutine.o
 .debug_macinfo
                0x00017bd8     0x592a ./freertos/src/list.o
 .debug_macinfo
                0x0001d502     0x631c ./freertos/src/queue.o
 .debug_macinfo
                0x0002381e     0x65d7 ./freertos/src/tasks.o
 .debug_macinfo
                0x00029df5     0x5deb ./freertos/port/memmang/heap_2.o
 .debug_macinfo
                0x0002fbe0     0x5a5d ./freertos/port/lpcxpresso/m0/port.o
 .debug_macinfo
                0x0003563d     0x261e C:\Documents and Settings\nxp21346\Desktop\LPCXpresso_Fix_Examples\LPCE\CMSISv1p30_LPC11xx\Debug\libCMSISv1p30_LPC11xx.a(core_cm0.o)
 .debug_macinfo
                0x00037c5b     0x486d C:\Documents and Settings\nxp21346\Desktop\LPCXpresso_Fix_Examples\LPCE\CMSISv1p30_LPC11xx\Debug\libCMSISv1p30_LPC11xx.a(system_LPC11xx.o)
 .debug_macinfo
                0x0003c4c8     0x27ec C:\Documents and Settings\nxp21346\Desktop\LPCXpresso_Fix_Examples\LPCE\lib_small_printf_m0\Lib\liblib_small_printf_m0.a(small_printf_nofloat.o)
 .debug_macinfo
                0x0003ecb4     0x27fb C:\Documents and Settings\nxp21346\Desktop\LPCXpresso_Fix_Examples\LPCE\lib_small_printf_m0\Lib\liblib_small_printf_m0.a(small_printf_support.o)
 .debug_macinfo
                0x000414af      0xc9e C:\Documents and Settings\nxp21346\Desktop\LPCXpresso_Fix_Examples\LPCE\lib_small_printf_m0\Lib\liblib_small_printf_m0.a(small_utils.o)

.debug_frame    0x00000000      0xc3c
 .debug_frame   0x00000000       0x70 ./src/cr_startup_lpc11.o
 .debug_frame   0x00000070       0x9c ./src/debug.o
 .debug_frame   0x0000010c      0x144 ./src/main.o
 .debug_frame   0x00000250       0x88 ./freertos/src/croutine.o
 .debug_frame   0x000002d8       0x70 ./freertos/src/list.o
 .debug_frame   0x00000348      0x170 ./freertos/src/queue.o
 .debug_frame   0x000004b8      0x2a0 ./freertos/src/tasks.o
 .debug_frame   0x00000758       0x6c ./freertos/port/memmang/heap_2.o
 .debug_frame   0x000007c4      0x150 ./freertos/port/lpcxpresso/m0/port.o
 .debug_frame   0x00000914      0x130 C:\Documents and Settings\nxp21346\Desktop\LPCXpresso_Fix_Examples\LPCE\CMSISv1p30_LPC11xx\Debug\libCMSISv1p30_LPC11xx.a(core_cm0.o)
 .debug_frame   0x00000a44       0x6c C:\Documents and Settings\nxp21346\Desktop\LPCXpresso_Fix_Examples\LPCE\CMSISv1p30_LPC11xx\Debug\libCMSISv1p30_LPC11xx.a(system_LPC11xx.o)
 .debug_frame   0x00000ab0       0x68 C:\Documents and Settings\nxp21346\Desktop\LPCXpresso_Fix_Examples\LPCE\lib_small_printf_m0\Lib\liblib_small_printf_m0.a(small_printf_nofloat.o)
 .debug_frame   0x00000b18       0x78 C:\Documents and Settings\nxp21346\Desktop\LPCXpresso_Fix_Examples\LPCE\lib_small_printf_m0\Lib\liblib_small_printf_m0.a(small_printf_support.o)
 .debug_frame   0x00000b90       0xac C:\Documents and Settings\nxp21346\Desktop\LPCXpresso_Fix_Examples\LPCE\lib_small_printf_m0\Lib\liblib_small_printf_m0.a(small_utils.o)

.debug_loc      0x00000000     0x25da
 .debug_loc     0x00000000       0xa2 ./src/cr_startup_lpc11.o
 .debug_loc     0x000000a2      0x18f ./src/debug.o
 .debug_loc     0x00000231      0x202 ./src/main.o
 .debug_loc     0x00000433      0x211 ./freertos/src/croutine.o
 .debug_loc     0x00000644       0x6f ./freertos/src/list.o
 .debug_loc     0x000006b3      0x720 ./freertos/src/queue.o
 .debug_loc     0x00000dd3      0x9d8 ./freertos/src/tasks.o
 .debug_loc     0x000017ab       0x99 ./freertos/port/memmang/heap_2.o
 .debug_loc     0x00001844      0x1b3 ./freertos/port/lpcxpresso/m0/port.o
 .debug_loc     0x000019f7      0x181 C:\Documents and Settings\nxp21346\Desktop\LPCXpresso_Fix_Examples\LPCE\CMSISv1p30_LPC11xx\Debug\libCMSISv1p30_LPC11xx.a(core_cm0.o)
 .debug_loc     0x00001b78       0x99 C:\Documents and Settings\nxp21346\Desktop\LPCXpresso_Fix_Examples\LPCE\CMSISv1p30_LPC11xx\Debug\libCMSISv1p30_LPC11xx.a(system_LPC11xx.o)
 .debug_loc     0x00001c11      0x35e C:\Documents and Settings\nxp21346\Desktop\LPCXpresso_Fix_Examples\LPCE\lib_small_printf_m0\Lib\liblib_small_printf_m0.a(small_printf_nofloat.o)
 .debug_loc     0x00001f6f      0x3da C:\Documents and Settings\nxp21346\Desktop\LPCXpresso_Fix_Examples\LPCE\lib_small_printf_m0\Lib\liblib_small_printf_m0.a(small_printf_support.o)
 .debug_loc     0x00002349      0x291 C:\Documents and Settings\nxp21346\Desktop\LPCXpresso_Fix_Examples\LPCE\lib_small_printf_m0\Lib\liblib_small_printf_m0.a(small_utils.o)

.debug_pubnames
                0x00000000      0x9b2
 .debug_pubnames
                0x00000000       0x6c ./src/cr_startup_lpc11.o
 .debug_pubnames
                0x0000006c       0x71 ./src/debug.o
 .debug_pubnames
                0x000000dd       0xd4 ./src/main.o
 .debug_pubnames
                0x000001b1       0x20 ./src/small_gpio.o
 .debug_pubnames
                0x000001d1       0x96 ./freertos/src/croutine.o
 .debug_pubnames
                0x00000267       0x71 ./freertos/src/list.o
 .debug_pubnames
                0x000002d8      0x13c ./freertos/src/queue.o
 .debug_pubnames
                0x00000414      0x24d ./freertos/src/tasks.o
 .debug_pubnames
                0x00000661       0x41 ./freertos/port/memmang/heap_2.o
 .debug_pubnames
                0x000006a2       0xf8 ./freertos/port/lpcxpresso/m0/port.o
 .debug_pubnames
                0x0000079a       0xb4 C:\Documents and Settings\nxp21346\Desktop\LPCXpresso_Fix_Examples\LPCE\CMSISv1p30_LPC11xx\Debug\libCMSISv1p30_LPC11xx.a(core_cm0.o)
 .debug_pubnames
                0x0000084e       0x4f C:\Documents and Settings\nxp21346\Desktop\LPCXpresso_Fix_Examples\LPCE\CMSISv1p30_LPC11xx\Debug\libCMSISv1p30_LPC11xx.a(system_LPC11xx.o)
 .debug_pubnames
                0x0000089d       0x51 C:\Documents and Settings\nxp21346\Desktop\LPCXpresso_Fix_Examples\LPCE\lib_small_printf_m0\Lib\liblib_small_printf_m0.a(small_printf_nofloat.o)
 .debug_pubnames
                0x000008ee       0x53 C:\Documents and Settings\nxp21346\Desktop\LPCXpresso_Fix_Examples\LPCE\lib_small_printf_m0\Lib\liblib_small_printf_m0.a(small_printf_support.o)
 .debug_pubnames
                0x00000941       0x71 C:\Documents and Settings\nxp21346\Desktop\LPCXpresso_Fix_Examples\LPCE\lib_small_printf_m0\Lib\liblib_small_printf_m0.a(small_utils.o)

.debug_aranges  0x00000000      0x4c0
 .debug_aranges
                0x00000000       0x38 ./src/cr_startup_lpc11.o
 .debug_aranges
                0x00000038       0x40 ./src/debug.o
 .debug_aranges
                0x00000078       0x68 ./src/main.o
 .debug_aranges
                0x000000e0       0x38 ./freertos/src/croutine.o
 .debug_aranges
                0x00000118       0x40 ./freertos/src/list.o
 .debug_aranges
                0x00000158       0x88 ./freertos/src/queue.o
 .debug_aranges
                0x000001e0       0xe8 ./freertos/src/tasks.o
 .debug_aranges
                0x000002c8       0x30 ./freertos/port/memmang/heap_2.o
 .debug_aranges
                0x000002f8       0x78 ./freertos/port/lpcxpresso/m0/port.o
 .debug_aranges
                0x00000370       0x70 C:\Documents and Settings\nxp21346\Desktop\LPCXpresso_Fix_Examples\LPCE\CMSISv1p30_LPC11xx\Debug\libCMSISv1p30_LPC11xx.a(core_cm0.o)
 .debug_aranges
                0x000003e0       0x30 C:\Documents and Settings\nxp21346\Desktop\LPCXpresso_Fix_Examples\LPCE\CMSISv1p30_LPC11xx\Debug\libCMSISv1p30_LPC11xx.a(system_LPC11xx.o)
 .debug_aranges
                0x00000410       0x30 C:\Documents and Settings\nxp21346\Desktop\LPCXpresso_Fix_Examples\LPCE\lib_small_printf_m0\Lib\liblib_small_printf_m0.a(small_printf_nofloat.o)
 .debug_aranges
                0x00000440       0x38 C:\Documents and Settings\nxp21346\Desktop\LPCXpresso_Fix_Examples\LPCE\lib_small_printf_m0\Lib\liblib_small_printf_m0.a(small_printf_support.o)
 .debug_aranges
                0x00000478       0x48 C:\Documents and Settings\nxp21346\Desktop\LPCXpresso_Fix_Examples\LPCE\lib_small_printf_m0\Lib\liblib_small_printf_m0.a(small_utils.o)

.debug_ranges   0x00000000      0x4b0
 .debug_ranges  0x00000000       0x30 ./src/cr_startup_lpc11.o
 .debug_ranges  0x00000030       0x38 ./src/debug.o
 .debug_ranges  0x00000068       0x60 ./src/main.o
 .debug_ranges  0x000000c8       0x48 ./freertos/src/croutine.o
 .debug_ranges  0x00000110       0x38 ./freertos/src/list.o
 .debug_ranges  0x00000148       0x80 ./freertos/src/queue.o
 .debug_ranges  0x000001c8      0x128 ./freertos/src/tasks.o
 .debug_ranges  0x000002f0       0x28 ./freertos/port/memmang/heap_2.o
 .debug_ranges  0x00000318       0x70 ./freertos/port/lpcxpresso/m0/port.o
 .debug_ranges  0x00000388       0x68 C:\Documents and Settings\nxp21346\Desktop\LPCXpresso_Fix_Examples\LPCE\CMSISv1p30_LPC11xx\Debug\libCMSISv1p30_LPC11xx.a(core_cm0.o)
 .debug_ranges  0x000003f0       0x28 C:\Documents and Settings\nxp21346\Desktop\LPCXpresso_Fix_Examples\LPCE\CMSISv1p30_LPC11xx\Debug\libCMSISv1p30_LPC11xx.a(system_LPC11xx.o)
 .debug_ranges  0x00000418       0x28 C:\Documents and Settings\nxp21346\Desktop\LPCXpresso_Fix_Examples\LPCE\lib_small_printf_m0\Lib\liblib_small_printf_m0.a(small_printf_nofloat.o)
 .debug_ranges  0x00000440       0x30 C:\Documents and Settings\nxp21346\Desktop\LPCXpresso_Fix_Examples\LPCE\lib_small_printf_m0\Lib\liblib_small_printf_m0.a(small_printf_support.o)
 .debug_ranges  0x00000470       0x40 C:\Documents and Settings\nxp21346\Desktop\LPCXpresso_Fix_Examples\LPCE\lib_small_printf_m0\Lib\liblib_small_printf_m0.a(small_utils.o)

.debug_str      0x00000000     0x1a03
 .debug_str     0x00000000      0x150 ./src/cr_startup_lpc11.o
                                0x184 (size before relaxing)
 .debug_str     0x00000150       0xdf ./src/debug.o
                                0x1d0 (size before relaxing)
 .debug_str     0x0000022f       0xe8 ./src/main.o
                                0x1eb (size before relaxing)
 .debug_str     0x00000317       0x1e ./src/small_gpio.o
                                0x10a (size before relaxing)
 .debug_str     0x00000335      0x34b ./freertos/src/croutine.o
                                0x44f (size before relaxing)
 .debug_str     0x00000680       0xaa ./freertos/src/list.o
                                0x23e (size before relaxing)
 .debug_str     0x0000072a      0x378 ./freertos/src/queue.o
                                0x531 (size before relaxing)
 .debug_str     0x00000aa2      0x525 ./freertos/src/tasks.o
                                0x7a2 (size before relaxing)
 .debug_str     0x00000fc7      0x12b ./freertos/port/memmang/heap_2.o
                                0x233 (size before relaxing)
 .debug_str     0x000010f2      0x370 ./freertos/port/lpcxpresso/m0/port.o
                                0x49e (size before relaxing)
 .debug_str     0x00001462      0x12d C:\Documents and Settings\nxp21346\Desktop\LPCXpresso_Fix_Examples\LPCE\CMSISv1p30_LPC11xx\Debug\libCMSISv1p30_LPC11xx.a(core_cm0.o)
                                0x1cb (size before relaxing)
 .debug_str     0x0000158f      0x27f C:\Documents and Settings\nxp21346\Desktop\LPCXpresso_Fix_Examples\LPCE\CMSISv1p30_LPC11xx\Debug\libCMSISv1p30_LPC11xx.a(system_LPC11xx.o)
                                0x3b0 (size before relaxing)
 .debug_str     0x0000180e       0xe2 C:\Documents and Settings\nxp21346\Desktop\LPCXpresso_Fix_Examples\LPCE\lib_small_printf_m0\Lib\liblib_small_printf_m0.a(small_printf_nofloat.o)
                                0x1b7 (size before relaxing)
 .debug_str     0x000018f0       0xad C:\Documents and Settings\nxp21346\Desktop\LPCXpresso_Fix_Examples\LPCE\lib_small_printf_m0\Lib\liblib_small_printf_m0.a(small_printf_support.o)
                                0x1d4 (size before relaxing)
 .debug_str     0x0000199d       0x66 C:\Documents and Settings\nxp21346\Desktop\LPCXpresso_Fix_Examples\LPCE\lib_small_printf_m0\Lib\liblib_small_printf_m0.a(small_utils.o)
                                0x104 (size before relaxing)

.comment        0x00000000      0x45c
 .comment       0x00000000       0x2b ./src/cr_startup_lpc11.o
 .comment       0x0000002b       0x2b ./src/debug.o
 .comment       0x00000056       0x2b ./src/main.o
 .comment       0x00000081       0x2b ./src/small_gpio.o
 .comment       0x000000ac       0x2b ./freertos/src/croutine.o
 .comment       0x000000d7       0x2b ./freertos/src/list.o
 .comment       0x00000102       0x2b ./freertos/src/queue.o
 .comment       0x0000012d       0x2b ./freertos/src/tasks.o
 .comment       0x00000158       0x2b ./freertos/port/memmang/heap_2.o
 .comment       0x00000183       0x2b ./freertos/port/lpcxpresso/m0/port.o
 .comment       0x000001ae       0x2b C:\Documents and Settings\nxp21346\Desktop\LPCXpresso_Fix_Examples\LPCE\CMSISv1p30_LPC11xx\Debug\libCMSISv1p30_LPC11xx.a(core_cm0.o)
 .comment       0x000001d9       0x2b C:\Documents and Settings\nxp21346\Desktop\LPCXpresso_Fix_Examples\LPCE\CMSISv1p30_LPC11xx\Debug\libCMSISv1p30_LPC11xx.a(system_LPC11xx.o)
 .comment       0x00000204       0x2b C:\Documents and Settings\nxp21346\Desktop\LPCXpresso_Fix_Examples\LPCE\lib_small_printf_m0\Lib\liblib_small_printf_m0.a(small_printf_nofloat.o)
 .comment       0x0000022f       0x2b C:\Documents and Settings\nxp21346\Desktop\LPCXpresso_Fix_Examples\LPCE\lib_small_printf_m0\Lib\liblib_small_printf_m0.a(small_printf_support.o)
 .comment       0x0000025a       0x2b C:\Documents and Settings\nxp21346\Desktop\LPCXpresso_Fix_Examples\LPCE\lib_small_printf_m0\Lib\liblib_small_printf_m0.a(small_utils.o)
 .comment       0x00000285       0x2b c:/nxp/lpcxpresso_3.3_beta3/tools/bin/../lib/gcc/arm-none-eabi/4.3.3/../../../../arm-none-eabi/lib/armv6-m\libcr_c.a(__weak__main.o)
 .comment       0x000002b0       0x2b c:/nxp/lpcxpresso_3.3_beta3/tools/bin/../lib/gcc/arm-none-eabi/4.3.3/../../../../arm-none-eabi/lib/armv6-m\libcr_c.a(ctype.o)
 .comment       0x000002db       0x2b c:/nxp/lpcxpresso_3.3_beta3/tools/bin/../lib/gcc/arm-none-eabi/4.3.3/../../../../arm-none-eabi/lib/armv6-m\libcr_c.a(memcmp.o)
 .comment       0x00000306       0x2b c:/nxp/lpcxpresso_3.3_beta3/tools/bin/../lib/gcc/arm-none-eabi/4.3.3/../../../../arm-none-eabi/lib/armv6-m\libcr_c.a(memcpy.o)
 .comment       0x00000331       0x2b c:/nxp/lpcxpresso_3.3_beta3/tools/bin/../lib/gcc/arm-none-eabi/4.3.3/../../../../arm-none-eabi/lib/armv6-m\libcr_c.a(memset.o)
 .comment       0x0000035c       0x2b c:/nxp/lpcxpresso_3.3_beta3/tools/bin/../lib/gcc/arm-none-eabi/4.3.3/../../../../arm-none-eabi/lib/armv6-m\libcr_c.a(strncpy.o)
 .comment       0x00000387       0x2b c:/nxp/lpcxpresso_3.3_beta3/tools/bin/../lib/gcc/arm-none-eabi/4.3.3/../../../../arm-none-eabi/lib/armv6-m\libcr_c.a(__init_alloc.o)
 .comment       0x000003b2       0x2b c:/nxp/lpcxpresso_3.3_beta3/tools/bin/../lib/gcc/arm-none-eabi/4.3.3/../../../../arm-none-eabi/lib/armv6-m\libcr_semihost.a(cr__read.o)
 .comment       0x000003dd       0x2b c:/nxp/lpcxpresso_3.3_beta3/tools/bin/../lib/gcc/arm-none-eabi/4.3.3/../../../../arm-none-eabi/lib/armv6-m\libcr_semihost.a(cr__write.o)
 .comment       0x00000408       0x2a c:/nxp/lpcxpresso_3.3_beta3/tools/bin/../lib/gcc/arm-none-eabi/4.3.3/armv6-m\libcr_eabihelpers.a(double.o)
 .comment       0x00000432       0x2a c:/nxp/lpcxpresso_3.3_beta3/tools/bin/../lib/gcc/arm-none-eabi/4.3.3/armv6-m\libcr_eabihelpers.a(rtlib.o)

.ARM.attributes
                0x00000000       0x2f
 .ARM.attributes
                0x00000000       0x31 ./src/cr_startup_lpc11.o
 .ARM.attributes
                0x00000031       0x31 ./src/debug.o
 .ARM.attributes
                0x00000062       0x31 ./src/main.o
 .ARM.attributes
                0x00000093       0x31 ./src/small_gpio.o
 .ARM.attributes
                0x000000c4       0x31 ./freertos/src/croutine.o
 .ARM.attributes
                0x000000f5       0x31 ./freertos/src/list.o
 .ARM.attributes
                0x00000126       0x31 ./freertos/src/queue.o
 .ARM.attributes
                0x00000157       0x31 ./freertos/src/tasks.o
 .ARM.attributes
                0x00000188       0x31 ./freertos/port/memmang/heap_2.o
 .ARM.attributes
                0x000001b9       0x31 ./freertos/port/lpcxpresso/m0/port.o
 .ARM.attributes
                0x000001ea       0x31 C:\Documents and Settings\nxp21346\Desktop\LPCXpresso_Fix_Examples\LPCE\CMSISv1p30_LPC11xx\Debug\libCMSISv1p30_LPC11xx.a(core_cm0.o)
 .ARM.attributes
                0x0000021b       0x31 C:\Documents and Settings\nxp21346\Desktop\LPCXpresso_Fix_Examples\LPCE\CMSISv1p30_LPC11xx\Debug\libCMSISv1p30_LPC11xx.a(system_LPC11xx.o)
 .ARM.attributes
                0x0000024c       0x31 C:\Documents and Settings\nxp21346\Desktop\LPCXpresso_Fix_Examples\LPCE\lib_small_printf_m0\Lib\liblib_small_printf_m0.a(small_printf_nofloat.o)
 .ARM.attributes
                0x0000027d       0x31 C:\Documents and Settings\nxp21346\Desktop\LPCXpresso_Fix_Examples\LPCE\lib_small_printf_m0\Lib\liblib_small_printf_m0.a(small_printf_support.o)
 .ARM.attributes
                0x000002ae       0x31 C:\Documents and Settings\nxp21346\Desktop\LPCXpresso_Fix_Examples\LPCE\lib_small_printf_m0\Lib\liblib_small_printf_m0.a(small_utils.o)
 .ARM.attributes
                0x000002df       0x30 c:/nxp/lpcxpresso_3.3_beta3/tools/bin/../lib/gcc/arm-none-eabi/4.3.3/../../../../arm-none-eabi/lib/armv6-m\libcr_c.a(__weak__main.o)
 .ARM.attributes
                0x0000030f       0x30 c:/nxp/lpcxpresso_3.3_beta3/tools/bin/../lib/gcc/arm-none-eabi/4.3.3/../../../../arm-none-eabi/lib/armv6-m\libcr_c.a(ctype.o)
 .ARM.attributes
                0x0000033f       0x30 c:/nxp/lpcxpresso_3.3_beta3/tools/bin/../lib/gcc/arm-none-eabi/4.3.3/../../../../arm-none-eabi/lib/armv6-m\libcr_c.a(memcmp.o)
 .ARM.attributes
                0x0000036f       0x30 c:/nxp/lpcxpresso_3.3_beta3/tools/bin/../lib/gcc/arm-none-eabi/4.3.3/../../../../arm-none-eabi/lib/armv6-m\libcr_c.a(memcpy.o)
 .ARM.attributes
                0x0000039f       0x30 c:/nxp/lpcxpresso_3.3_beta3/tools/bin/../lib/gcc/arm-none-eabi/4.3.3/../../../../arm-none-eabi/lib/armv6-m\libcr_c.a(memset.o)
 .ARM.attributes
                0x000003cf       0x30 c:/nxp/lpcxpresso_3.3_beta3/tools/bin/../lib/gcc/arm-none-eabi/4.3.3/../../../../arm-none-eabi/lib/armv6-m\libcr_c.a(strncpy.o)
 .ARM.attributes
                0x000003ff       0x30 c:/nxp/lpcxpresso_3.3_beta3/tools/bin/../lib/gcc/arm-none-eabi/4.3.3/../../../../arm-none-eabi/lib/armv6-m\libcr_c.a(__init_alloc.o)
 .ARM.attributes
                0x0000042f       0x31 c:/nxp/lpcxpresso_3.3_beta3/tools/bin/../lib/gcc/arm-none-eabi/4.3.3/../../../../arm-none-eabi/lib/armv6-m\libcr_semihost.a(cr__read.o)
 .ARM.attributes
                0x00000460       0x31 c:/nxp/lpcxpresso_3.3_beta3/tools/bin/../lib/gcc/arm-none-eabi/4.3.3/../../../../arm-none-eabi/lib/armv6-m\libcr_semihost.a(cr__write.o)
 .ARM.attributes
                0x00000491       0x2e c:/nxp/lpcxpresso_3.3_beta3/tools/bin/../lib/gcc/arm-none-eabi/4.3.3/armv6-m\libcr_eabihelpers.a(double.o)
 .ARM.attributes
                0x000004bf       0x20 c:/nxp/lpcxpresso_3.3_beta3/tools/bin/../lib/gcc/arm-none-eabi/4.3.3/armv6-m\libcr_eabihelpers.a(helpers.o)
 .ARM.attributes
                0x000004df       0x2e c:/nxp/lpcxpresso_3.3_beta3/tools/bin/../lib/gcc/arm-none-eabi/4.3.3/armv6-m\libcr_eabihelpers.a(rtlib.o)
